; Function Attrs: nounwind sspstrong uwtable
define internal i64 @pst_equal(i64 noundef %0, i64 noundef %1) #1 {
  %3 = icmp eq i64 %0, %1
  br i1 %3, label %12, label %4

4:                                                ; preds = %2
  %5 = tail call ptr @rb_check_typeddata(i64 noundef %0, ptr noundef nonnull @rb_process_status_type) #27
  %6 = getelementptr inbounds nuw i8, ptr %5, i64 4
  %7 = load i32, ptr %6, align 4, !tbaa !51
  %8 = sext i32 %7 to i64
  %9 = shl nsw i64 %8, 1
  %10 = or disjoint i64 %9, 1
  %11 = tail call i64 @rb_equal(i64 noundef %10, i64 noundef %1) #27
  br label %12

12:                                               ; preds = %2, %4
  %.0 = phi i64 [ %11, %4 ], [ 20, %2 ]
  ret i64 %.0
}